target datalayout = "e-m:e-p270:32:32-p271:32:32-p272:64:64-i64:64-i128:128-f80:128-n8:16:32:64-S128"
target triple = "x86_64-pc-linux-gnu"

%struct.rb_random_mt_t = type { %struct.rb_random_struct, %struct.MT }
%struct.rb_random_struct = type { i64 }
%struct.MT = type { [624 x i32], ptr, i32 }

@default_rand_key = internal global ptr null, align 8

; Function Attrs: inlinehint nounwind sspstrong willreturn memory(none) uwtable
define internal i64 @RB_INT2FIX(i64 noundef %0) #8 {
  %2 = alloca i64, align 8
  %3 = alloca i64, align 8
  %4 = alloca i64, align 8
  %5 = alloca i64, align 8
  %6 = alloca i64, align 8
  %7 = alloca i64, align 8
  store i64 %0, ptr %2, align 8, !tbaa !26
  call void @llvm.lifetime.start.p0(i64 8, ptr %3) #24
  %8 = load i64, ptr %2, align 8, !tbaa !26
  store i64 %8, ptr %3, align 8, !tbaa !26
  call void @llvm.lifetime.start.p0(i64 8, ptr %4) #24
  %9 = load i64, ptr %3, align 8, !tbaa !26
  %10 = shl i64 %9, 1
  %11 = add i64 %10, 1
  store i64 %11, ptr %4, align 8, !tbaa !26
  call void @llvm.lifetime.start.p0(i64 8, ptr %5) #24
  %12 = load i64, ptr %4, align 8, !tbaa !26
  store i64 %12, ptr %5, align 8, !tbaa !26
  call void @llvm.lifetime.start.p0(i64 8, ptr %6) #24
  %13 = load i64, ptr %5, align 8, !tbaa !26
  store i64 %13, ptr %6, align 8, !tbaa !26
  call void @llvm.lifetime.start.p0(i64 8, ptr %7) #24
  %14 = load i64, ptr %6, align 8, !tbaa !26
  store i64 %14, ptr %7, align 8, !tbaa !26
  %15 = load i64, ptr %7, align 8, !tbaa !26
  call void @llvm.lifetime.end.p0(i64 8, ptr %7) #24
  call void @llvm.lifetime.end.p0(i64 8, ptr %6) #24
  call void @llvm.lifetime.end.p0(i64 8, ptr %5) #24
  call void @llvm.lifetime.end.p0(i64 8, ptr %4) #24
  call void @llvm.lifetime.end.p0(i64 8, ptr %3) #24
  ret i64 %15
}

; Function Attrs: nounwind sspstrong uwtable
define internal ptr @default_rand() #0 {
  %1 = alloca ptr, align 8
  call void @llvm.lifetime.start.p0(i64 8, ptr %1) #24
  %2 = load ptr, ptr @default_rand_key, align 8, !tbaa !7
  %3 = call ptr @rb_ractor_local_storage_ptr(ptr noundef %2)
  store ptr %3, ptr %1, align 8, !tbaa !20
  %4 = icmp eq ptr %3, null
  br i1 %4, label %5, label %9

5:                                                ; preds = %0
  %6 = call noalias nonnull ptr @ruby_xcalloc(i64 noundef 1, i64 noundef 2520) #29
  store ptr %6, ptr %1, align 8, !tbaa !20
  %7 = load ptr, ptr @default_rand_key, align 8, !tbaa !7
  %8 = load ptr, ptr %1, align 8, !tbaa !20
  call void @rb_ractor_local_storage_ptr_set(ptr noundef %7, ptr noundef %8)
  br label %9

9:                                                ; preds = %5, %0
  %10 = load ptr, ptr %1, align 8, !tbaa !20
  call void @llvm.lifetime.end.p0(i64 8, ptr %1) #24
  ret ptr %10
}

; Function Attrs: nounwind sspstrong uwtable
define internal i64 @random_s_left(i64 noundef %0) #0 {
  %2 = alloca i64, align 8
  store i64 %0, ptr %2, align 8, !tbaa !26
  %3 = call ptr @default_rand()
  %4 = getelementptr inbounds nuw %struct.rb_random_mt_t, ptr %3, i32 0, i32 1
  %5 = getelementptr inbounds nuw %struct.MT, ptr %4, i32 0, i32 2
  %6 = load i32, ptr %5, align 8, !tbaa !76
  %7 = sext i32 %6 to i64
  %8 = call i64 @RB_INT2FIX(i64 noundef %7) #28
  ret i64 %8
}