; Function Attrs: nounwind sspstrong uwtable
define internal range(i64 1, 0) i64 @random_s_left(i64 %0) #0 {
  %2 = load ptr, ptr @default_rand_key, align 8, !tbaa !7
  %3 = tail call ptr @rb_ractor_local_storage_ptr(ptr noundef %2) #23
  %4 = icmp eq ptr %3, null
  br i1 %4, label %5, label %default_rand.exit

5:                                                ; preds = %1
  %6 = tail call noalias nonnull dereferenceable(2520) ptr @ruby_xcalloc(i64 noundef 1, i64 noundef 2520) #24
  %7 = load ptr, ptr @default_rand_key, align 8, !tbaa !7
  tail call void @rb_ractor_local_storage_ptr_set(ptr noundef %7, ptr noundef nonnull %6) #23
  br label %default_rand.exit

default_rand.exit:                                ; preds = %1, %5
  %.0.i = phi ptr [ %6, %5 ], [ %3, %1 ]
  %8 = getelementptr inbounds nuw i8, ptr %.0.i, i64 2512
  %9 = load i32, ptr %8, align 8, !tbaa !81
  %10 = sext i32 %9 to i64
  %11 = shl nsw i64 %10, 1
  %12 = or disjoint i64 %11, 1
  ret i64 %12
}